target datalayout = "e-m:e-p270:32:32-p271:32:32-p272:64:64-i64:64-i128:128-f80:128-n8:16:32:64-S128"
target triple = "x86_64-pc-linux-gnu"

%struct.ObjectClass = type { ptr, ptr, [4 x ptr], [4 x ptr], ptr, ptr }
%struct.ChardevClass = type { %struct.ObjectClass, i8, i8, ptr, ptr, ptr, ptr, ptr, ptr, ptr, ptr, ptr, ptr, ptr, ptr, ptr, ptr, ptr, ptr }

@.str.44 = private unnamed_addr constant [8 x i8] c"chardev\00", align 1
@.str.46 = private unnamed_addr constant [101 x i8] c"/home/dtcxzyw/WorkSpace/Projects/compilers/llvm-opt-benchmark/bench/qemu/qemu/include/chardev/char.h\00", align 1
@__func__.CHARDEV_CLASS = private unnamed_addr constant [14 x i8] c"CHARDEV_CLASS\00", align 1

; Function Attrs: inlinehint nounwind sspstrong uwtable
define internal ptr @CHARDEV_CLASS(ptr noundef %0) #3 {
  %2 = alloca ptr, align 8
  store ptr %0, ptr %2, align 8
  %3 = load ptr, ptr %2, align 8
  %4 = call ptr @object_class_dynamic_cast_assert(ptr noundef %3, ptr noundef @.str.44, ptr noundef @.str.46, i32 noundef 231, ptr noundef @__func__.CHARDEV_CLASS)
  ret ptr %4
}

; Function Attrs: nounwind sspstrong uwtable
define internal void @char_gdb_class_init(ptr noundef %0, ptr noundef %1) #0 {
  %3 = alloca ptr, align 8
  %4 = alloca ptr, align 8
  %5 = alloca ptr, align 8
  store ptr %0, ptr %3, align 8
  store ptr %1, ptr %4, align 8
  call void @llvm.lifetime.start.p0(i64 8, ptr %5) #14
  %6 = load ptr, ptr %3, align 8
  %7 = call ptr @CHARDEV_CLASS(ptr noundef %6)
  store ptr %7, ptr %5, align 8
  %8 = load ptr, ptr %5, align 8
  %9 = getelementptr inbounds nuw %struct.ChardevClass, ptr %8, i32 0, i32 1
  store i8 1, ptr %9, align 8
  %10 = load ptr, ptr %5, align 8
  %11 = getelementptr inbounds nuw %struct.ChardevClass, ptr %10, i32 0, i32 4
  store ptr @gdb_monitor_open, ptr %11, align 8
  %12 = load ptr, ptr %5, align 8
  %13 = getelementptr inbounds nuw %struct.ChardevClass, ptr %12, i32 0, i32 5
  store ptr @gdb_monitor_write, ptr %13, align 8
  call void @llvm.lifetime.end.p0(i64 8, ptr %5) #14
  ret void
}