; Function Attrs: nounwind sspstrong uwtable
define internal void @char_gdb_class_init(ptr noundef %0, ptr readnone captures(none) %1) #2 {
  %3 = tail call ptr @object_class_dynamic_cast_assert(ptr noundef %0, ptr noundef nonnull @.str.44, ptr noundef nonnull @.str.46, i32 noundef 231, ptr noundef nonnull @__func__.CHARDEV_CLASS) #16
  %4 = getelementptr inbounds nuw i8, ptr %3, i64 96
  store i8 1, ptr %4, align 8
  %5 = getelementptr inbounds nuw i8, ptr %3, i64 112
  store ptr @gdb_monitor_open, ptr %5, align 8
  %6 = getelementptr inbounds nuw i8, ptr %3, i64 120
  store ptr @gdb_monitor_write, ptr %6, align 8
  ret void
}